; Listing generated by Microsoft (R) Optimizing Compiler Version 16.00.40219.01 

	TITLE	c:\hub\sm3\test.c
	.686P
	.XMM
	include listing.inc
	.model	flat

INCLUDELIB LIBCMT
INCLUDELIB OLDNAMES

PUBLIC	_vectors
_DATA	SEGMENT
_vectors DB	01aH
	DB	0b2H
	DB	01dH
	DB	083H
	DB	055H
	DB	0cfH
	DB	0a1H
	DB	07fH
	DB	08eH
	DB	061H
	DB	019H
	DB	048H
	DB	031H
	DB	0e8H
	DB	01aH
	DB	08fH
	DB	022H
	DB	0beH
	DB	0c8H
	DB	0c7H
	DB	028H
	DB	0feH
	DB	0fbH
	DB	074H
	DB	07eH
	DB	0d0H
	DB	035H
	DB	0ebH
	DB	050H
	DB	082H
	DB	0aaH
	DB	02bH
	DB	02dH
	DB	0aeH
	DB	0f6H
	DB	0eH
	DB	07aH
	DB	0bH
	DB	08fH
	DB	05eH
	DB	02H
	DB	04cH
	DB	081H
	DB	0cdH
	DB	02aH
	DB	0b3H
	DB	010H
	DB	09fH
	DB	02bH
	DB	04fH
	DB	015H
	DB	05cH
	DB	0f8H
	DB	03aH
	DB	0deH
	DB	0b2H
	DB	0aeH
	DB	055H
	DB	032H
	DB	0f7H
	DB	04aH
	DB	015H
	DB	07fH
	DB	0dfH
	DB	0afH
	DB	083H
	DB	0a9H
	DB	066H
	DB	022H
	DB	020H
	DB	057H
	DB	0acH
	DB	076H
	DB	012H
	DB	046H
	DB	0a7H
	DB	054H
	DB	03cH
	DB	058H
	DB	0dH
	DB	091H
	DB	011H
	DB	01H
	DB	04fH
	DB	04eH
	DB	05eH
	DB	03cH
	DB	0b1H
	DB	028H
	DB	01dH
	DB	0b3H
	DB	031H
	DB	051H
	DB	016H
	DB	03H
	DB	035H
	DB	018H
	DB	039H
	DB	020H
	DB	0f0H
	DB	0eH
	DB	015H
	DB	0a0H
	DB	043H
	DB	03eH
	DB	0e3H
	DB	0a8H
	DB	0fcH
	DB	090H
	DB	0ddH
	DB	09aH
	DB	0c1H
	DB	064H
	DB	0c4H
	DB	014H
	DB	02cH
	DB	0cfH
	DB	063H
	DB	0caH
	DB	018H
	DB	09aH
	DB	08fH
	DB	064H
	DB	05eH
	DB	0c9H
	DB	06fH
	DB	0f8H
	DB	0deH
	DB	0afH
	DB	0ccH
	DB	087H
	DB	0fH
	DB	0a2H
	DB	0cH
	DB	050H
	DB	079H
	DB	095H
	DB	049H
	DB	097H
	DB	094H
	DB	037H
	DB	01eH
	DB	08cH
	DB	025H
	DB	0e3H
	DB	0a7H
	DB	031H
	DB	0fH
	DB	0a7H
	DB	022H
	DB	00H
	DB	0c1H
	DB	09H
	DB	037H
	DB	099H
	DB	073H
	DB	0aeH
	DB	023H
	DB	068H
	DB	045H
	DB	04H
	DB	071H
	DB	033H
	DB	017H
	DB	0eaH
	DB	089H
	DB	04eH
	DB	089H
	DB	0dH
	DB	027H
	DB	0fbH
	DB	01cH
	DB	0f0H
	DB	080H
	DB	0eH
	DB	0adH
	DB	081H
	DB	083H
	DB	0f6H
	DB	047H
	DB	0fdH
	DB	02fH
	DB	0d3H
	DB	011H
	DB	02dH
	DB	015H
	DB	01fH
	DB	08aH
	DB	0c2H
	DB	069H
	DB	061H
	DB	07cH
	DB	040H
	DB	07bH
	DB	08bH
	DB	070H
	DB	020H
	DB	099H
	DB	035H
	DB	066H
	DB	0d8H
	DB	015H
	DB	036H
	DB	031H
	DB	0a6H
	DB	07cH
	DB	0e5H
	DB	083H
	DB	066H
	DB	047H
	DB	0e6H
	DB	0ceH
	DB	0ceH
	DB	0dH
	DB	061H
	DB	08cH
	DB	07bH
	DB	086H
	DB	07dH
	DB	041H
	DB	06aH
	DB	052H
	DB	095H
	DB	0c5H
	DB	0faH
	DB	035H
	DB	064H
	DB	0ffH
	DB	06fH
	DB	077H
	DB	06aH
	DB	09cH
	DB	0fcH
	DB	053H
	DB	0a1H
	DB	0f9H
	DB	0b8H
	DB	06bH
	DB	0d0H
	DB	0dcH
	DB	074H
	DB	07aH
	DB	047H
	DB	031H
	DB	0a4H
	DB	049H
	DB	011H
	DB	06eH
	DB	045H
	DB	0c0H
	DB	0adH
	DB	0dH
	DB	05H
	DB	0f5H
	DB	064H
	DB	0b7H
	DB	0b7H
	DB	086H
	DB	091H
	DB	08H
	DB	0f1H
	DB	051H
	DB	0baH
	DB	070H
	DB	067H
	DB	02eH
	DB	010H
	DB	015H
	DB	03cH
	DB	0c9H
	DB	0fH
	DB	0c2H
	DB	0b5H
	DB	0d4H
	DB	050H
	DB	06aH
	DB	096H
	DB	03fH
	DB	03H
	DB	0b6H
	DB	0c5H
	DB	0b4H
	DB	0aaH
	DB	03bH
	DB	0ceH
	DB	0a0H
	DB	09dH
	DB	083H
	DB	0e5H
	DB	0efH
	DB	0bbH
	DB	013H
	DB	032H
	DB	053H
	DB	0d8H
	DB	086H
	DB	099H
	DB	01eH
	DB	0a6H
	DB	0bH
	DB	055H
	DB	0c1H
	DB	03fH
	DB	0b2H
	DB	060H
	DB	04eH
	DB	0fcH
	DB	076H
	DB	03eH
	DB	072H
	DB	099H
	DB	0fcH
	DB	058H
	DB	0b4H
	DB	041H
	DB	0b0H
	DB	07H
	DB	0afH
	DB	0dfH
	DB	0a2H
	DB	0f0H
	DB	0d0H
	DB	01aH
	DB	014H
	DB	0eaH
	DB	0f1H
	DB	040H
	DB	0ceH
	DB	0c6H
	DB	0e3H
	DB	0c9H
	DB	0eH
	DB	071H
	DB	046H
	DB	098H
	DB	0c9H
	DB	0ceH
	DB	0b0H
	DB	03cH
	DB	0bbH
	DB	093H
	DB	033H
	DB	0cH
	DB	070H
	DB	0c2H
	DB	0a3H
	DB	02fH
	DB	058H
	DB	07bH
	DB	04cH
	DB	08fH
	DB	011H
	DB	05eH
	DB	02H
	DB	0aeH
	DB	06aH
	DB	090H
	DB	061H
	DB	013H
	DB	084H
	DB	0dH
	DB	079H
	DB	0eaH
	DB	081H
	DB	06bH
	DB	0f8H
	DB	0acH
	DB	073H
	DB	02bH
	DB	0beH
	DB	0e9H
	DB	098H
	DB	01H
	DB	07aH
	DB	0fdH
	DB	03eH
	DB	034H
	DB	0a4H
	DB	0f0H
	DB	0d0H
	DB	033H
	DB	06eH
	DB	0f2H
	DB	0aH
	DB	0f2H
	DB	04bH
	DB	0a4H
	DB	0faH
	DB	051H
	DB	05bH
	DB	0c2H
	DB	0ceH
	DB	076H
	DB	091H
	DB	0f2H
	DB	047H
	DB	091H
	DB	05H
	DB	0e5H
	DB	07eH
	DB	0a2H
	DB	022H
	DB	0f9H
	DB	036H
	DB	0d2H
	DB	0dcH
	DB	07H
	DB	022H
	DB	0f3H
	DB	0f4H
	DB	04aH
	DB	098H
	DB	045H
	DB	0bbH
	DB	0f6H
	DB	069H
	DB	0a3H
	DB	069H
	DB	03bH
	DB	02H
	DB	0b1H
	DB	087H
	DB	0b4H
	DB	0a0H
	DB	0a0H
	DB	034H
	DB	09aH
	DB	01bH
	DB	091H
	DB	013H
	DB	02fH
	DB	05eH
	DB	024H
	DB	068H
	DB	0baH
	DB	0dbH
	DB	0adH
	DB	0fH
	DB	037H
	DB	04eH
	DB	085H
	DB	099H
	DB	0e4H
	DB	0eH
	DB	049H
	DB	0cfH
	DB	058H
	DB	056H
	DB	034H
	DB	04fH
	DB	085H
	DB	014H
	DB	071H
	DB	010H
	DB	05fH
	DB	050H
	DB	09bH
	DB	06bH
	DB	024H
	DB	0c1H
	DB	08bH
	DB	092H
	DB	061H
	DB	0fbH
	DB	07fH
	DB	08cH
	DB	0e6H
	DB	0b1H
	DB	070H
	DB	074H
	DB	012H
	DB	0f3H
	DB	0e6H
	DB	035H
	DB	0abH
	DB	026H
	DB	04aH
	DB	0fbH
	DB	0efH
	DB	015H
	DB	041H
	DB	0c8H
	DB	0e1H
	DB	0b9H
	DB	05bH
	DB	0dbH
	DB	0b5H
	DB	0b0H
	DB	055H
	DB	01dH
	DB	0fcH
	DB	044H
	DB	042H
	DB	037H
	DB	0d9H
	DB	06H
	DB	059H
	DB	0c8H
	DB	093H
	DB	06H
	DB	093H
	DB	08bH
	DB	087H
	DB	0b5H
	DB	0c9H
	DB	085H
	DB	0caH
	DB	075H
	DB	0f5H
	DB	0f4H
	DB	075H
	DB	05cH
	DB	010H
	DB	06eH
	DB	034H
	DB	0a2H
	DB	0b8H
	DB	0c7H
	DB	0bbH
	DB	013H
	DB	015H
	DB	06cH
	DB	0fdH
	DB	0d0H
	DB	0d9H
	DB	013H
	DB	079H
	DB	0dcH
	DB	0c4H
	DB	075H
	DB	043H
	DB	0dcH
	DB	0f9H
	DB	078H
	DB	07cH
	DB	068H
	DB	0aeH
	DB	05eH
	DB	0b5H
	DB	082H
	DB	062H
	DB	0aH
	DB	0e6H
	DB	0e8H
	DB	0bfH
	DB	0c0H
	DB	0a0H
	DB	07bH
	DB	0d1H
	DB	0a6H
	DB	0f9H
	DB	050H
	DB	0baH
	DB	090H
	DB	0bH
	DB	093H
	DB	0ceH
	DB	04dH
	DB	0bdH
	DB	05bH
	DB	03aH
	DB	079H
	DB	05H
	DB	049H
	DB	080H
	DB	0c4H
	DB	0e6H
	DB	05bH
	DB	080H
	DB	0b0H
	DB	01bH
	DB	07cH
	DB	018H
	DB	0ffH
	DB	0bbH
	DB	07fH
	DB	034H
	DB	028H
	DB	0c2H
	DB	0a2H
	DB	06dH
	DB	09dH
	DB	0f6H
	DB	05dH
	DB	091H
	DB	0e6H
	DB	0beH
	DB	09cH
	DB	0e6H
	DB	0bH
	DB	019H
	DB	033H
	DB	079H
	DB	03H
	DB	08bH
	DB	013H
	DB	016H
	DB	0c1H
	DB	01eH
	DB	0fcH
	DB	083H
	DB	08cH
	DB	047H
	DB	0c4H
	DB	0b1H
	DB	0c2H
	DB	07fH
	DB	01H
	DB	012H
	DB	03bH
	DB	05bH
	DB	07eH
	DB	0b8H
	DB	060H
	DB	04H
	DB	027H
	DB	06cH
	DB	04eH
	DB	0a6H
	DB	04fH
	DB	015H
	DB	0a8H
	DB	0bH
	DB	023H
	DB	04fH
	DB	0dbH
	DB	0a4H
	DB	0ccH
	DB	04bH
	DB	025H
	DB	06aH
	DB	08cH
	DB	0bcH
	DB	0baH
	DB	021H
	DB	04bH
	DB	0d5H
	DB	02eH
	DB	07fH
	DB	052H
	DB	018H
	DB	085H
	DB	08H
	DB	04H
	DB	0c9H
	DB	02eH
	DB	097H
	DB	0e1H
	DB	0dH
	DB	0aeH
	DB	0acH
	DB	0d8H
	DB	0ddH
	DB	0a0H
	DB	02H
	DB	0bH
	DB	0bdH
	DB	069H
	DB	06aH
	DB	0f1H
	DB	0f1H
	DB	09eH
	DB	01eH
	DB	0e6H
	DB	0dcH
	DB	019H
	DB	0faH
	DB	02cH
	DB	0fcH
	DB	09bH
	DB	034H
	DB	0d6H
	DB	07aH
	DB	05eH
	DB	0c2H
	DB	030H
	DB	095H
	DB	016H
	DB	083H
	DB	02bH
	DB	08bH
	DB	042H
	DB	087H
	DB	086H
	DB	015H
	DB	011H
	DB	0b8H
	DB	039H
	DB	029H
	DB	020H
	DB	0e2H
	DB	047H
	DB	00H
	DB	0ccH
	DB	05fH
	DB	017H
	DB	0e2H
	DB	02bH
	DB	04fH
	DB	051H
	DB	03dH
	DB	072H
	DB	0dbH
	DB	015H
	DB	00H
	DB	054H
	DB	01H
	DB	0f5H
	DB	08fH
	DB	096H
	DB	0d3H
	DB	0ddH
	DB	07aH
	DB	0deH
	DB	06aH
	DB	0f5H
	DB	056H
	DB	05fH
	DB	0a0H
	DB	04bH
	DB	0c8H
	DB	08bH
	DB	0c4H
	DB	065H
	DB	0e7H
	DB	05cH
	DB	083H
	DB	0b7H
	DB	074H
	DB	0d4H
	DB	0adH
	DB	03aH
	DB	01cH
	DB	0b5H
	DB	0dfH
	DB	0f3H
	DB	037H
	DB	04bH
	DB	03H
	DB	0aeH
	DB	083H
	DB	0dfH
	DB	035H
	DB	037H
	DB	053H
	DB	012H
	DB	08dH
	DB	072H
	DB	037H
	DB	0ccH
	DB	068H
	DB	0f9H
	DB	0c0H
	DB	036H
	DB	0f4H
	DB	02dH
	DB	091H
	DB	0cfH
	DB	02H
	DB	0a1H
	DB	0bH
	DB	04fH
	DB	03dH
	DB	05aH
	DB	07eH
	DB	0a6H
	DB	011H
	DB	094H
	DB	0fbH
	DB	0fH
	DB	07cH
	DB	0afH
	DB	0beH
	DB	09aH
	DB	06cH
	DB	0eH
	DB	02cH
	DB	06cH
	DB	0b8H
	DB	0cfH
	DB	075H
	DB	0e3H
	DB	04fH
	DB	06dH
	DB	044H
	DB	04dH
	DB	085H
	DB	0eeH
	DB	07dH
	DB	09eH
	DB	046H
	DB	07H
	DB	0eaH
	DB	08bH
	DB	0b0H
	DB	02dH
	DB	02dH
	DB	0a6H
	DB	0aaH
	DB	08fH
	DB	090H
	DB	092H
	DB	084H
	DB	0a6H
	DB	098H
	DB	030H
	DB	0faH
	DB	075H
	DB	0c2H
	DB	051H
	DB	016H
	DB	03aH
	DB	0d0H
	DB	098H
	DB	0c6H
	DB	039H
	DB	0f5H
	DB	016H
	DB	042H
	DB	052H
	DB	043H
	DB	092H
	DB	011H
	DB	01eH
	DB	076H
	DB	0fbH
	DB	04fH
	DB	09H
	DB	0b6H
	DB	0d8H
	DB	031H
	DB	0ccH
	DB	030H
	DB	0cH
	DB	0f9H
	DB	066H
	DB	0afH
	DB	07eH
	DB	014H
	DB	01aH
	DB	0a2H
	DB	083H
	DB	0a8H
	DB	097H
	DB	0c9H
	DB	018H
	DB	0e5H
	DB	0cdH
	DB	07bH
	DB	088H
	DB	0bH
	DB	06cH
	DB	09fH
	DB	0e5H
	DB	08fH
	DB	0abH
	DB	094H
	DB	0deH
	DB	0bH
	DB	044H
	DB	09aH
	DB	070H
	DB	09aH
	DB	083H
	DB	08fH
	DB	0d0H
	DB	05cH
	DB	06bH
	DB	09cH
	DB	02aH
	DB	0abH
	DB	073H
	DB	0f5H
	DB	0c3H
	DB	0deH
	DB	011H
	DB	0d0H
	DB	0fbH
	DB	079H
	DB	028H
	DB	050H
	DB	0cdH
	DB	081H
	DB	0a9H
	DB	0d9H
	DB	03aH
	DB	0dcH
	DB	0dbH
	DB	07bH
	DB	08cH
	DB	086H
	DB	0aH
	DB	075H
	DB	065H
	DB	0eH
	DB	0acH
	DB	033H
	DB	06dH
	DB	08bH
	DB	057H
	DB	09aH
	DB	020H
	DB	080H
	DB	057H
	DB	033H
	DB	0fcH
	DB	048H
	DB	04aH
	DB	065H
	DB	0aaH
	DB	09eH
	DB	0caH
	DB	06dH
	DB	051H
	DB	02fH
	DB	0d8H
	DB	09dH
	DB	038H
	DB	01fH
	DB	0fcH
	DB	0afH
	DB	0d7H
	DB	021H
	DB	07H
	DB	03bH
	DB	0aeH
	DB	034H
	DB	0bdH
	DB	088H
	DB	0c1H
	DB	0f6H
	DB	0f2H
	DB	08fH
	DB	0e2H
	DB	0a3H
	DB	0a9H
	DB	0f9H
	DB	047H
	DB	09dH
	DB	02eH
	DB	0d8H
	DB	0ffH
	DB	02cH
	DB	0ebH
	DB	03bH
	DB	026H
	DB	0bH
	DB	01dH
	DB	091H
	DB	0a4H
	DB	07fH
	DB	0c3H
	DB	0afH
	DB	00H
	DB	010H
	DB	09aH
	DB	0caH
	DB	04eH
	DB	0dbH
	DB	052H
	DB	046H
	DB	0ccH
	DB	01H
	DB	0c6H
	DB	0efH
	DB	0c0H
	DB	031H
	DB	0e0H
	DB	04cH
	DB	09bH
	DB	049H
	DB	0aH
	DB	03fH
	DB	0b6H
	DB	0cH
	DB	02bH
	DB	07dH
	DB	027H
	DB	03aH
	DB	035H
	DB	0b0H
	DB	03H
	DB	0fdH
	DB	01fH
	DB	03eH
	DB	022H
	DB	07bH
	DB	0c5H
	DB	08eH
	DB	088H
	DB	06cH
	DB	054H
	DB	012H
	DB	019H
	DB	018H
	DB	039H
	DB	0e9H
	DB	091H
	DB	063H
	DB	0c2H
	DB	011H
	DB	0a0H
	DB	0fcH
	DB	05H
	DB	014H
	DB	085H
	DB	0e3H
	DB	0a3H
	DB	044H
	DB	043H
	DB	075H
	DB	085H
	DB	029H
	DB	0d3H
	DB	08eH
	DB	093H
	DB	0c6H
	DB	0b7H
	DB	092H
	DB	06bH
	DB	082H
	DB	0f2H
	DB	06dH
	DB	089H
	DB	0e0H
	DB	0baH
	DB	0b8H
	DB	0f4H
	DB	0d8H
	DB	017H
	DB	02bH
	DB	0a2H
	DB	045H
	DB	019H
	DB	0dH
	DB	013H
	DB	0c9H
	DB	041H
	DB	017H
	DB	0e9H
	DB	03bH
	DB	082H
	DB	016H
	DB	06cH
	DB	025H
	DB	0b2H
	DB	0b6H
	DB	098H
	DB	083H
	DB	035H
	DB	0cH
	DB	019H
	DB	02cH
	DB	090H
	DB	051H
	DB	040H
	DB	08fH
	DB	0a0H
	DB	0ddH
	DB	02cH
	DB	079H
	DB	08cH
	DB	05bH
	DB	0baH
	DB	0daH
	DB	041H
	DB	05eH
	DB	05dH
	DB	011H
	DB	067H
	DB	0a3H
	DB	070H
	DB	072H
	DB	0eeH
	DB	065H
	DB	055H
	DB	08aH
	DB	02cH
	DB	0eaH
	DB	040H
	DB	08bH
	DB	0c5H
	DB	021H
	DB	04cH
	DB	09fH
	DB	0d2H
	DB	08fH
	DB	03cH
	DB	049H
	DB	0cbH
	DB	01dH
	DB	0a7H
	DB	013H
	DB	0c9H
	DB	06dH
	DB	0bcH
	DB	0c6H
	DB	0aeH
	DB	04eH
	DB	0b3H
	DB	042H
	DB	02aH
	DB	08cH
	DB	05dH
	DB	0c8H
	DB	0f1H
	DB	089H
	DB	076H
	DB	078H
	DB	02fH
	DB	0cdH
	DB	06cH
	DB	0bcH
	DB	0fcH
	DB	03H
	DB	0cH
	DB	083H
	DB	054H
	DB	09eH
	DB	057H
	DB	078H
	DB	054H
	DB	09dH
	DB	0abH
	DB	0ebH
	DB	0aaH
	DB	014H
	DB	0deH
	DB	0e4H
	DB	09eH
	DB	098H
	DB	0f0H
	DB	0ebH
	DB	01H
	DB	0dcH
	DB	0b6H
	DB	0daH
	DB	05fH
	DB	0b0H
	DB	061H
	DB	0ddH
	DB	06dH
	DB	0b1H
	DB	0f2H
	DB	01fH
	DB	08fH
	DB	0e4H
	DB	0fbH
	DB	0d7H
	DB	05bH
	DB	010H
	DB	029H
	DB	0eeH
	DB	09dH
	DB	028H
	DB	0daH
	DB	0d8H
	DB	081H
	DB	0d7H
	DB	0f5H
	DB	091H
	DB	089H
	DB	09bH
	DB	04dH
	DB	010H
	DB	05eH
	DB	038H
	DB	05bH
	DB	019H
	DB	090H
	DB	011H
	DB	01fH
	DB	062H
	DB	046H
	DB	034H
	DB	0d3H
	DB	0e1H
	DB	0d5H
	DB	081H
	DB	017H
	DB	07cH
	DB	02fH
	DB	04H
	DB	0b0H
	DB	0c3H
	DB	08aH
	DB	0d8H
	DB	054H
	DB	046H
	DB	046H
	DB	07cH
	DB	023H
	DB	067H
	DB	07H
	DB	0b2H
	DB	037H
	DB	0f3H
	DB	0c4H
	DB	093H
	DB	034H
	DB	017H
	DB	068H
	DB	084H
	DB	0e5H
	DB	091H
	DB	034H
	DB	0ceH
	DB	052H
	DB	030H
	DB	0d5H
	DB	0beH
	DB	0b8H
	DB	04cH
	DB	0f6H
	DB	059H
	DB	029H
	DB	0c2H
	DB	085H
	DB	037H
	DB	0ceH
	DB	034H
	DB	0b0H
	DB	0a1H
	DB	0c9H
	DB	039H
	DB	0f1H
	DB	0feH
	DB	0baH
	DB	0cbH
	DB	014H
	DB	096H
	DB	0c7H
	DB	0feH
	DB	0ebH
	DB	0a7H
	DB	058H
	DB	0fcH
	DB	086H
	DB	077H
	DB	031H
	DB	03bH
	DB	098H
	DB	066H
	DB	0bdH
	DB	0abH
	DB	042H
	DB	0d2H
	DB	028H
	DB	070H
	DB	075H
	DB	094H
	DB	01aH
	DB	0e1H
	DB	078H
	DB	0fH
	DB	031H
	DB	0b0H
	DB	0f8H
	DB	0f2H
	DB	030H
	DB	082H
	DB	046H
	DB	081H
	DB	0a8H
	DB	0c7H
	DB	01aH
	DB	091H
	DB	067H
	DB	0b1H
	DB	029H
	DB	067H
	DB	0c0H
	DB	0d3H
	DB	0bfH
	DB	064H
	DB	0ffH
	DB	01eH
	DB	0a6H
	DB	037H
	DB	0edH
	DB	079H
	DB	0f6H
	DB	022H
	DB	022H
	DB	0b7H
	DB	0f9H
	DB	0d0H
	DB	0ebH
	DB	05cH
	DB	0bdH
	DB	044H
	DB	059H
	DB	0fcH
	DB	0d4H
	DB	07fH
	DB	06dH
	DB	024H
	DB	040H
	DB	03H
	DB	0d4H
	DB	016H
	DB	042H
	DB	07bH
	DB	06H
	DB	096H
	DB	056H
	DB	07H
	DB	072H
	DB	0b0H
	DB	05aH
	DB	073H
	DB	059H
	DB	02aH
	DB	0eaH
	DB	04bH
	DB	01dH
	DB	0cH
	DB	02bH
	DB	092H
	DB	015H
	DB	0bfH
	DB	036H
	DB	0edH
	DB	01cH
	DB	06fH
	DB	0c8H
	DB	040H
	DB	05cH
	DB	086H
	DB	04aH
	DB	051H
	DB	05eH
	DB	040H
	DB	055H
	DB	093H
	DB	056H
	DB	0a9H
	DB	084H
	DB	02aH
	DB	0b6H
	DB	08cH
	DB	0cdH
	DB	07eH
	DB	013H
	DB	0afH
	DB	04dH
	DB	0cdH
	DB	0feH
	DB	07aH
	DB	01H
	DB	09H
	DB	042H
	DB	0e3H
	DB	0c5H
	DB	0c6H
	DB	02dH
	DB	0c1H
	DB	0efH
	DB	07eH
	DB	090H
	DB	05aH
	DB	02eH
	DB	071H
	DB	092H
	DB	021H
	DB	0f8H
	DB	0b8H
	DB	03dH
	DB	0e6H
	DB	057H
	DB	040H
	DB	05aH
	DB	0d2H
	DB	091H
	DB	065H
	DB	0dfH
	DB	02eH
	DB	057H
	DB	050H
	DB	0f4H
	DB	0f3H
	DB	0d2H
	DB	09dH
	DB	06fH
	DB	0a7H
	DB	05H
	DB	0bcH
	DB	0bH
	DB	0bH
	DB	089H
	DB	0eaH
	DB	0a6H
	DB	0d6H
	DB	08cH
	DB	020H
	DB	021H
	DB	08cH
	DB	08eH
	DB	07fH
	DB	019H
	DB	03H
	DB	0caH
	DB	0a3H
	DB	04cH
	DB	0dfH
	DB	0d4H
	DB	077H
	DB	07dH
	DB	0c5H
	DB	0c4H
	DB	0c0H
	DB	0e2H
	DB	0cH
	DB	0f3H
	DB	03cH
	DB	0caH
	DB	0bfH
	DB	074H
	DB	012H
	DB	06aH
	DB	05H
	DB	04H
	DB	0c0H
	DB	062H
	DB	0edH
	DB	0ecH
	DB	023H
	DB	08H
	DB	0efH
	DB	0fdH
	DB	0daH
	DB	05dH
	DB	0b8H
	DB	0ecH
	DB	045H
	DB	09aH
	DB	04aH
	DB	088H
	DB	0cfH
	DB	0e7H
	DB	03cH
	DB	08aH
	DB	0f5H
	DB	098H
	DB	0aH
	DB	030H
	DB	0ceH
	DB	0deH
	DB	0aH
	DB	04aH
	DB	078H
	DB	062H
	DB	057H
	DB	0a4H
	DB	0b2H
	DB	049H
	DB	05cH
	DB	036H
	DB	05H
	DB	0edH
	DB	0caH
	DB	0c5H
	DB	085H
	DB	065H
	DB	083H
	DB	090H
	DB	071H
	DB	0e2H
	DB	0c7H
	DB	018H
	DB	0d3H
	DB	0dfH
	DB	041H
	DB	056H
	DB	0d9H
	DB	0dcH
	DB	0e7H
	DB	0c7H
	DB	0ebH
	DB	09bH
	DB	0c1H
	DB	0dfH
	DB	068H
	DB	0bH
	DB	084H
	DB	072H
	DB	0fdH
	DB	0fcH
	DB	035H
	DB	0d9H
	DB	0deH
	DB	0b9H
	DB	033H
	DB	0a2H
	DB	0b7H
	DB	010H
	DB	0e8H
	DB	072H
	DB	010H
	DB	0dfH
	DB	062H
	DB	0ddH
	DB	09dH
	DB	0baH
	DB	03cH
	DB	027H
	DB	07aH
	DB	0b9H
	DB	06H
	DB	080H
	DB	02eH
	DB	093H
	DB	066H
	DB	0e0H
	DB	050H
	DB	09dH
	DB	0fH
	DB	070H
	DB	0edH
	DB	0a2H
	DB	0f1H
	DB	0d1H
	DB	0aaH
	DB	037H
	DB	090H
	DB	0c0H
	DB	010H
	DB	03H
	DB	0dbH
	DB	0f5H
	DB	0c1H
	DB	07eH
	DB	03eH
	DB	08cH
	DB	08cH
	DB	08eH
	DB	0c4H
	DB	0ceH
	DB	052H
	DB	070H
	DB	0caH
	DB	07H
	DB	017H
	DB	01H
	DB	0edH
	DB	0c9H
	DB	01H
	DB	0dH
	DB	024H
	DB	0dcH
	DB	09H
	DB	09dH
	DB	0afH
	DB	0c1H
	DB	071H
	DB	045H
	DB	0b6H
	DB	0b7H
	DB	0dH
	DB	0c8H
	DB	03cH
	DB	046H
	DB	018H
	DB	0afH
	DB	0e0H
	DB	0e2H
	DB	0a0H
	DB	089H
	DB	028H
	DB	07eH
	DB	0f4H
	DB	04cH
	DB	088H
	DB	0c4H
	DB	0ceH
	DB	055H
	DB	0d1H
	DB	03fH
	DB	03aH
	DB	0c6H
	DB	02aH
	DB	0e4H
	DB	0cdH
	DB	06aH
	DB	06bH
	DB	0b3H
	DB	0e3H
	DB	097H
	DB	057H
	DB	03fH
	DB	083H
	DB	01eH
	DB	0aaH
	DB	010H
	DB	058H
	DB	0d9H
	DB	03H
	DB	075H
	DB	0bfH
	DB	041H
	DB	0ebH
	DB	063H
	DB	0cdH
	DB	0aeH
	DB	0eaH
	DB	0ceH
	DB	036H
	DB	0d7H
	DB	019H
	DB	0acH
	DB	0f4H
	DB	05H
	DB	08H
	DB	025H
	DB	087H
	DB	090H
	DB	04H
	DB	00H
	DB	03cH
	DB	0faH
	DB	01bH
	DB	0f2H
	DB	05cH
	DB	065H
	DB	02eH
	DB	0c6H
	DB	043H
	DB	0ceH
	DB	0ceH
	DB	01eH
	DB	02eH
	DB	08H
	DB	03dH
	DB	062H
	DB	0aaH
	DB	01aH
	DB	0efH
	DB	0d4H
	DB	031H
	DB	03cH
	DB	081H
	DB	0bcH
	DB	0efH
	DB	06bH
	DB	020H
	DB	080H
	DB	07H
	DB	063H
	DB	0dfH
	DB	05fH
	DB	0b1H
	DB	01dH
	DB	0acH
	DB	095H
	DB	0bfH
	DB	072H
	DB	033H
	DB	0a0H
	DB	0d6H
	DB	07fH
	DB	073H
	DB	0adH
	DB	056H
	DB	0d0H
	DB	0cbH
	DB	066H
	DB	046H
	DB	0adH
	DB	084H
	DB	09fH
	DB	088H
	DB	090H
	DB	0beH
	DB	064H
	DB	0cbH
	DB	0deH
	DB	04fH
	DB	0adH
	DB	068H
	DB	0a2H
	DB	027H
	DB	08H
	DB	082H
	DB	01eH
	DB	060H
	DB	070H
	DB	043H
	DB	02fH
	DB	05fH
	DB	042H
	DB	0ddH
	DB	073H
	DB	034H
	DB	046H
	DB	0c0H
	DB	081H
	DB	0a2H
	DB	0bdH
	DB	07aH
	DB	024H
	DB	0c6H
	DB	09dH
	DB	02bH
	DB	025H
	DB	076H
	DB	0d8H
	DB	0fbH
	DB	042H
	DB	071H
	DB	0fcH
	DB	051H
	DB	070H
	DB	05dH
	DB	0bbH
	DB	016H
	DB	05dH
	DB	079H
	DB	0fbH
	DB	057H
	DB	0ffH
	DB	024H
	DB	027H
	DB	075H
	DB	015H
	DB	0cdH
	DB	07fH
	DB	049H
	DB	0d1H
	DB	0eeH
	DB	084H
	DB	099H
	DB	0c4H
	DB	04eH
	DB	0b5H
	DB	0b7H
	DB	08H
	DB	0c3H
	DB	0b7H
	DB	099H
	DB	0c1H
	DB	0bdH
	DB	0b3H
	DB	0b2H
	DB	01fH
	DB	0d6H
	DB	0dbH
	DB	097H
	DB	02cH
	DB	08H
	DB	01cH
	DB	052H
	DB	0ccH
	DB	01cH
	DB	06eH
	DB	03dH
	DB	0d6H
	DB	04dH
	DB	0b4H
	DB	084H
	DB	0e4H
	DB	02cH
	DB	0dcH
	DB	0e3H
	DB	0d6H
	DB	097H
	DB	0afH
	DB	037H
	DB	016H
	DB	0a9H
	DB	0b3H
	DB	0cdH
	DB	0f0H
	DB	068H
	DB	0b4H
	DB	03eH
	DB	051H
	DB	038H
	DB	046H
	DB	0e1H
	DB	07cH
	DB	0c9H
	DB	0fdH
	DB	042H
	DB	079H
	DB	029H
	DB	0aaH
	DB	0d7H
	DB	01H
	DB	065H
	DB	0f2H
	DB	01dH
	DB	0daH
	DB	087H
	DB	0b8H
	DB	01aH
	DB	0f2H
	DB	0b2H
	DB	0b2H
	DB	02cH
	DB	0bdH
	DB	0f2H
	DB	068H
	DB	0e2H
	DB	011H
	DB	0d0H
	DB	012H
	DB	0d6H
	DB	04H
	DB	089H
	DB	02dH
	DB	03cH
	DB	094H
	DB	08fH
	DB	0f2H
	DB	098H
	DB	0d6H
	DB	01dH
	DB	06cH
	DB	094H
	DB	02eH
	DB	0eeH
	DB	084H
	DB	07fH
	DB	086H
	DB	0edH
	DB	07eH
	DB	064H
	DB	0afH
	DB	0f8H
	DB	07fH
	DB	0b6H
	DB	036H
	DB	098H
	DB	043H
	DB	0e9H
	DB	030H
	DB	05bH
	DB	0e1H
	DB	03dH
	DB	0dH
	DB	0afH
	DB	034H
	DB	059H
	DB	0daH
	DB	04eH
	DB	01dH
	DB	025H
	DB	075H
	DB	0aaH
	DB	08eH
	DB	08H
	DB	080H
	DB	04eH
	DB	0c0H
	DB	02dH
	DB	022H
	DB	0d2H
	DB	080H
	DB	095H
	DB	0d6H
	DB	0c6H
	DB	020H
	DB	035H
	DB	0a5H
	DB	084H
	DB	0c2H
	DB	09bH
	DB	0eH
	DB	036H
	DB	017H
	DB	0e0H
	DB	0eaH
	DB	0e3H
	DB	045H
	DB	04bH
	DB	086H
	DB	0faH
	DB	0e6H
	DB	0cfH
	DB	0fbH
	DB	0f8H
	DB	088H
	DB	043H
	DB	01aH
	DB	04cH
	DB	09dH
	DB	0d7H
	DB	06aH
	DB	0c9H
	DB	047H
	DB	09eH
	DB	0eH
	DB	0adH
	DB	0e8H
	DB	0d7H
	DB	088H
	DB	07fH
	DB	0dH
	DB	03H
	DB	03H
	DB	044H
	DB	06cH
	DB	07H
	DB	09bH
	DB	0beH
	DB	04eH
	DB	054H
	DB	0c1H
	DB	05dH
	DB	05bH
	DB	0fbH
	DB	0deH
	DB	084H
	DB	038H
	DB	08aH
	DB	033H
	DB	0e0H
	DB	0c3H
	DB	054H
	DB	08eH
	DB	0c9H
	DB	042H
	DB	0ffH
	DB	0fcH
	DB	060H
	DB	082H
	DB	068H
	DB	0bbH
	DB	0d8H
	DB	0f7H
	DB	0afH
	DB	0b2H
	DB	03dH
	DB	09aH
	DB	04fH
	DB	0deH
	DB	041H
	DB	07dH
	DB	0b6H
	DB	0aaH
	DB	069H
	DB	0d4H
	DB	075H
	DB	025H
	DB	0aH
	DB	0f8H
	DB	09cH
	DB	087H
	DB	0ebH
	DB	095H
	DB	058H
	DB	060H
	DB	098H
	DB	058H
	DB	0f7H
	DB	010H
	DB	059H
	DB	0b2H
	DB	0bcH
	DB	0c1H
	DB	017H
	DB	0dfH
	DB	033H
	DB	03dH
	DB	02bH
	DB	037H
	DB	0acH
	DB	019H
	DB	04bH
	DB	0eeH
	DB	070H
	DB	073H
	DB	07dH
	DB	07H
	DB	058H
	DB	097H
	DB	030H
	DB	050H
	DB	032H
	DB	0b3H
	DB	012H
	DB	085H
	DB	093H
	DB	013H
	DB	0eH
	DB	03H
	DB	0d5H
	DB	0e8H
	DB	0e9H
	DB	08bH
	DB	069H
	DB	015H
	DB	01H
	DB	0b2H
	DB	05bH
	DB	0d6H
	DB	02aH
	DB	0dcH
	DB	07cH
	DB	047H
	DB	083H
	DB	0d8H
	DB	014H
	DB	0d1H
	DB	029H
	DB	070H
	DB	0c3H
	DB	0e3H
	DB	0ffH
	DB	08aH
	DB	08bH
	DB	0ebH
	DB	011H
	DB	019H
	DB	059H
	DB	0c2H
	DB	052H
	DB	041H
	DB	0dcH
	DB	010H
	DB	0cbH
	DB	03cH
	DB	070H
	DB	0eH
	DB	046H
	DB	044H
	DB	069H
	DB	043H
	DB	0d2H
	DB	07bH
	DB	097H
	DB	01fH
	DB	0efH
	DB	0a7H
	DB	0e8H
	DB	081H
	DB	015H
	DB	0f8H
	DB	066H
	DB	0d6H
	DB	0f8H
	DB	03dH
	DB	050H
	DB	02fH
	DB	0f1H
	DB	0bcH
	DB	06H
	DB	0c2H
_DATA	ENDS
PUBLIC	??_C@_0BC@MBHOCOJH@?6All?5tests?5passed?$AA@	; `string'
PUBLIC	??_C@_0CA@JLHIPHGD@?6Hash?5for?5test?5vector?5?$CFi?5failed?$AA@ ; `string'
PUBLIC	_main
EXTRN	_printf:PROC
EXTRN	_SM3_Finalx:PROC
EXTRN	_SM3_Updatex:PROC
EXTRN	_SM3_Initx:PROC
;	COMDAT ??_C@_0BC@MBHOCOJH@?6All?5tests?5passed?$AA@
; File c:\hub\sm3\test.c
CONST	SEGMENT
??_C@_0BC@MBHOCOJH@?6All?5tests?5passed?$AA@ DB 0aH, 'All tests passed', 00H ; `string'
CONST	ENDS
;	COMDAT ??_C@_0CA@JLHIPHGD@?6Hash?5for?5test?5vector?5?$CFi?5failed?$AA@
CONST	SEGMENT
??_C@_0CA@JLHIPHGD@?6Hash?5for?5test?5vector?5?$CFi?5failed?$AA@ DB 0aH, 'H'
	DB	'ash for test vector %i failed', 00H		; `string'
; Function compile flags: /Ogspy
CONST	ENDS
;	COMDAT _main
_TEXT	SEGMENT
_ctx$ = -104						; size = 104
_msg$ = 0						; size = 64
_out$ = 64						; size = 32
tv204 = 96						; size = 4
tv167 = 100						; size = 4
_fail$ = 104						; size = 4
tv199 = 108						; size = 4
_argc$ = 120						; size = 4
_argv$ = 124						; size = 4
_main	PROC						; COMDAT

; 141  : {

	push	ebp
	lea	ebp, DWORD PTR [esp-112]
	sub	esp, 216				; 000000d8H
	push	ebx
	push	esi
	push	edi

; 142  :   SM3_CTX ctx;
; 143  :   int     i, j, fail;
; 144  :   uint8_t out[32]={0};  

	push	7
	xor	eax, eax
	mov	BYTE PTR _out$[ebp], 0
	pop	ecx
	lea	edi, DWORD PTR _out$[ebp+1]
	rep stosd
	stosw

; 145  :   uint8_t msg[64];
; 146  :   char    *c;
; 147  : 
; 148  :   for (fail=0, i=0; i<64; i++) {

	xor	ebx, ebx
	lea	edx, DWORD PTR _msg$[ebp]
	dec	edx
	stosb
	mov	DWORD PTR _fail$[ebp], ebx
	mov	DWORD PTR tv199[ebp], OFFSET _vectors
	mov	DWORD PTR tv204[ebp], edx
	jmp	SHORT $LN5@main
$LL11@main:
	mov	edx, DWORD PTR tv204[ebp]
$LN5@main:

; 149  :     memset(msg, 0, sizeof(msg));

	xor	al, al
	push	64					; 00000040H
	pop	ecx
	lea	edi, DWORD PTR _msg$[ebp]
	rep stosb

; 150  :     msg[i] = i;

	lea	eax, DWORD PTR [ebx+1]
	mov	DWORD PTR tv167[ebp], eax
	mov	BYTE PTR [edx+eax], bl

; 151  :     
; 152  :     SM3_Initx(&ctx);

	lea	eax, DWORD PTR _ctx$[ebp]
	push	eax
	call	_SM3_Initx

; 153  :     SM3_Updatex(&ctx, msg, i);

	push	ebx
	lea	eax, DWORD PTR _msg$[ebp]
	push	eax
	lea	eax, DWORD PTR _ctx$[ebp]
	push	eax
	call	_SM3_Updatex

; 154  :     SM3_Finalx(out, &ctx);

	lea	eax, DWORD PTR _ctx$[ebp]
	push	eax
	lea	eax, DWORD PTR _out$[ebp]
	push	eax
	call	_SM3_Finalx

; 155  :   
; 156  :     if (memcmp(out, vectors[i], 32)) {

	mov	edi, DWORD PTR tv199[ebp]
	add	esp, 24					; 00000018H
	push	8
	pop	ecx
	lea	esi, DWORD PTR _out$[ebp]
	xor	eax, eax
	repe cmpsd
	je	SHORT $LN4@main

; 157  :       printf ("\nHash for test vector %i failed", i+1);

	push	DWORD PTR tv167[ebp]
	push	OFFSET ??_C@_0CA@JLHIPHGD@?6Hash?5for?5test?5vector?5?$CFi?5failed?$AA@
	call	_printf

; 158  :       fail++;

	inc	DWORD PTR _fail$[ebp]
	pop	ecx
	pop	ecx
$LN4@main:

; 145  :   uint8_t msg[64];
; 146  :   char    *c;
; 147  : 
; 148  :   for (fail=0, i=0; i<64; i++) {

	add	DWORD PTR tv199[ebp], 32		; 00000020H
	cmp	DWORD PTR tv199[ebp], OFFSET _vectors+2048
	mov	ebx, DWORD PTR tv167[ebp]
	jl	SHORT $LL11@main

; 159  :     }      
; 160  :   }
; 161  :   if (!fail) printf ("\nAll tests passed");

	cmp	DWORD PTR _fail$[ebp], 0
	pop	edi
	pop	esi
	pop	ebx
	jne	SHORT $LN1@main
	push	OFFSET ??_C@_0BC@MBHOCOJH@?6All?5tests?5passed?$AA@
	call	_printf
	pop	ecx
$LN1@main:

; 162  :   
; 163  :   /*
; 164  :   for (i=0; i<64; i++) {
; 165  :     memset(msg, 0, sizeof(msg));
; 166  :     msg[i] = i+1;
; 167  :     
; 168  :     SM3_Init(&ctx);
; 169  :     SM3_Update(&ctx, msg, i);
; 170  :     SM3_Final(out, &ctx);
; 171  :   
; 172  :     for (j=0; j<32; j++) {
; 173  :       if ((j & 15)==0) {printf("\n");}
; 174  :       if (j==0) printf("{ ");
; 175  :       printf("0x%02x", out[j]); 
; 176  :       if (j+1 != 32) putchar(',');
; 177  :       putchar(' ');
; 178  :     }
; 179  :     printf(" },");    
; 180  :   }*/
; 181  :   return 0;

	xor	eax, eax

; 182  : }

	add	ebp, 112				; 00000070H
	leave
	ret	0
_main	ENDP
_TEXT	ENDS
END
